; Function Attrs: mustprogress uwtable
define void @ucnv_getNonSurrogateUnicodeSet_77(ptr noundef readnone captures(none) %0, ptr noundef readonly captures(none) %1, i32 noundef %2, ptr noundef readnone captures(none) %3) local_unnamed_addr #0 {
  %5 = getelementptr inbounds nuw i8, ptr %1, i64 16
  %6 = load ptr, ptr %5, align 8, !tbaa !3
  %7 = load ptr, ptr %1, align 8, !tbaa !9
  tail call void %6(ptr noundef %7, i32 noundef 0, i32 noundef 55295)
  %8 = load ptr, ptr %5, align 8, !tbaa !3
  %9 = load ptr, ptr %1, align 8, !tbaa !9
  tail call void %8(ptr noundef %9, i32 noundef 57344, i32 noundef 1114111)
  ret void
}